target datalayout = "e-m:e-p270:32:32-p271:32:32-p272:64:64-i64:64-i128:128-f80:128-n8:16:32:64-S128"
target triple = "x86_64-pc-linux-gnu"

%struct.slurmdb_print_tree_t = type { ptr, ptr, ptr, i16 }

@.str.2 = private unnamed_addr constant [15 x i8] c"slurmdb_defs.c\00", align 1
@.str.11 = private unnamed_addr constant [1 x i8] zeroinitializer, align 1
@.str.15 = private unnamed_addr constant [5 x i8] c"%s%s\00", align 1
@__func__.slurmdb_tree_name_get = private unnamed_addr constant [22 x i8] c"slurmdb_tree_name_get\00", align 1
@.str.58 = private unnamed_addr constant [4 x i8] c" %s\00", align 1

; Function Attrs: nounwind uwtable
define dso_local ptr @slurmdb_tree_name_get(ptr noundef %0, ptr noundef %1, ptr noundef %2) #0 {
  %4 = alloca ptr, align 8
  %5 = alloca ptr, align 8
  %6 = alloca ptr, align 8
  %7 = alloca ptr, align 8
  %8 = alloca ptr, align 8
  %9 = alloca ptr, align 8
  %10 = alloca ptr, align 8
  %11 = alloca i32, align 4
  store ptr %0, ptr %5, align 8
  store ptr %1, ptr %6, align 8
  store ptr %2, ptr %7, align 8
  call void @llvm.lifetime.start.p0(i64 8, ptr %8) #10
  store ptr null, ptr %8, align 8
  call void @llvm.lifetime.start.p0(i64 8, ptr %9) #10
  store ptr null, ptr %9, align 8
  call void @llvm.lifetime.start.p0(i64 8, ptr %10) #10
  store ptr null, ptr %10, align 8
  %12 = load ptr, ptr %7, align 8
  %13 = icmp ne ptr %12, null
  br i1 %13, label %15, label %14

14:                                               ; preds = %3
  store ptr null, ptr %4, align 8
  store i32 1, ptr %11, align 4
  br label %110

15:                                               ; preds = %3
  %16 = load ptr, ptr %7, align 8
  %17 = call ptr @list_iterator_create(ptr noundef %16)
  store ptr %17, ptr %8, align 8
  br label %18

18:                                               ; preds = %49, %27, %15
  %19 = load ptr, ptr %8, align 8
  %20 = call ptr @list_next(ptr noundef %19)
  store ptr %20, ptr %9, align 8
  %21 = icmp ne ptr %20, null
  br i1 %21, label %22, label %50

22:                                               ; preds = %18
  %23 = load ptr, ptr %9, align 8
  %24 = getelementptr inbounds nuw %struct.slurmdb_print_tree_t, ptr %23, i32 0, i32 3
  %25 = load i16, ptr %24, align 8
  %26 = icmp ne i16 %25, 0
  br i1 %26, label %27, label %28

27:                                               ; preds = %22
  br label %18, !llvm.loop !31

28:                                               ; preds = %22
  %29 = load ptr, ptr %5, align 8
  %30 = load ptr, ptr %9, align 8
  %31 = getelementptr inbounds nuw %struct.slurmdb_print_tree_t, ptr %30, i32 0, i32 0
  %32 = load ptr, ptr %31, align 8
  %33 = call i32 @xstrcmp(ptr noundef %29, ptr noundef %32)
  %34 = icmp ne i32 %33, 0
  br i1 %34, label %36, label %35

35:                                               ; preds = %28
  br label %50

36:                                               ; preds = %28
  %37 = load ptr, ptr %6, align 8
  %38 = icmp ne ptr %37, null
  br i1 %38, label %39, label %48

39:                                               ; preds = %36
  %40 = load ptr, ptr %6, align 8
  %41 = load ptr, ptr %9, align 8
  %42 = getelementptr inbounds nuw %struct.slurmdb_print_tree_t, ptr %41, i32 0, i32 0
  %43 = load ptr, ptr %42, align 8
  %44 = call i32 @xstrcmp(ptr noundef %40, ptr noundef %43)
  %45 = icmp ne i32 %44, 0
  br i1 %45, label %48, label %46

46:                                               ; preds = %39
  %47 = load ptr, ptr %9, align 8
  store ptr %47, ptr %10, align 8
  br label %48

48:                                               ; preds = %46, %39, %36
  br label %49

49:                                               ; preds = %48
  br label %18, !llvm.loop !31

50:                                               ; preds = %35, %18
  %51 = load ptr, ptr %8, align 8
  call void @list_iterator_destroy(ptr noundef %51)
  %52 = load ptr, ptr %6, align 8
  %53 = icmp ne ptr %52, null
  br i1 %53, label %54, label %61

54:                                               ; preds = %50
  %55 = load ptr, ptr %9, align 8
  %56 = icmp ne ptr %55, null
  br i1 %56, label %57, label %61

57:                                               ; preds = %54
  %58 = load ptr, ptr %9, align 8
  %59 = getelementptr inbounds nuw %struct.slurmdb_print_tree_t, ptr %58, i32 0, i32 1
  %60 = load ptr, ptr %59, align 8
  store ptr %60, ptr %4, align 8
  store i32 1, ptr %11, align 4
  br label %110

61:                                               ; preds = %54, %50
  %62 = call ptr @slurm_xcalloc(i64 noundef 1, i64 noundef 32, i1 noundef zeroext true, i1 noundef zeroext false, ptr noundef @.str.2, i32 noundef 2493, ptr noundef @__func__.slurmdb_tree_name_get)
  store ptr %62, ptr %9, align 8
  %63 = load ptr, ptr %5, align 8
  %64 = call ptr @xstrdup(ptr noundef %63)
  %65 = load ptr, ptr %9, align 8
  %66 = getelementptr inbounds nuw %struct.slurmdb_print_tree_t, ptr %65, i32 0, i32 0
  store ptr %64, ptr %66, align 8
  %67 = load ptr, ptr %10, align 8
  %68 = icmp ne ptr %67, null
  br i1 %68, label %69, label %76

69:                                               ; preds = %61
  %70 = load ptr, ptr %10, align 8
  %71 = getelementptr inbounds nuw %struct.slurmdb_print_tree_t, ptr %70, i32 0, i32 2
  %72 = load ptr, ptr %71, align 8
  %73 = call ptr (ptr, ...) @xstrdup_printf(ptr noundef @.str.58, ptr noundef %72)
  %74 = load ptr, ptr %9, align 8
  %75 = getelementptr inbounds nuw %struct.slurmdb_print_tree_t, ptr %74, i32 0, i32 2
  store ptr %73, ptr %75, align 8
  br label %80

76:                                               ; preds = %61
  %77 = call ptr @xstrdup(ptr noundef @.str.11)
  %78 = load ptr, ptr %9, align 8
  %79 = getelementptr inbounds nuw %struct.slurmdb_print_tree_t, ptr %78, i32 0, i32 2
  store ptr %77, ptr %79, align 8
  br label %80

80:                                               ; preds = %76, %69
  %81 = load ptr, ptr %5, align 8
  %82 = getelementptr inbounds i8, ptr %81, i64 0
  %83 = load i8, ptr %82, align 1
  %84 = sext i8 %83 to i32
  %85 = icmp eq i32 %84, 124
  br i1 %85, label %86, label %96

86:                                               ; preds = %80
  %87 = load ptr, ptr %9, align 8
  %88 = getelementptr inbounds nuw %struct.slurmdb_print_tree_t, ptr %87, i32 0, i32 2
  %89 = load ptr, ptr %88, align 8
  %90 = load ptr, ptr %6, align 8
  %91 = call ptr (ptr, ...) @xstrdup_printf(ptr noundef @.str.15, ptr noundef %89, ptr noundef %90)
  %92 = load ptr, ptr %9, align 8
  %93 = getelementptr inbounds nuw %struct.slurmdb_print_tree_t, ptr %92, i32 0, i32 1
  store ptr %91, ptr %93, align 8
  %94 = load ptr, ptr %9, align 8
  %95 = getelementptr inbounds nuw %struct.slurmdb_print_tree_t, ptr %94, i32 0, i32 3
  store i16 1, ptr %95, align 8
  br label %104

96:                                               ; preds = %80
  %97 = load ptr, ptr %9, align 8
  %98 = getelementptr inbounds nuw %struct.slurmdb_print_tree_t, ptr %97, i32 0, i32 2
  %99 = load ptr, ptr %98, align 8
  %100 = load ptr, ptr %5, align 8
  %101 = call ptr (ptr, ...) @xstrdup_printf(ptr noundef @.str.15, ptr noundef %99, ptr noundef %100)
  %102 = load ptr, ptr %9, align 8
  %103 = getelementptr inbounds nuw %struct.slurmdb_print_tree_t, ptr %102, i32 0, i32 1
  store ptr %101, ptr %103, align 8
  br label %104

104:                                              ; preds = %96, %86
  %105 = load ptr, ptr %7, align 8
  %106 = load ptr, ptr %9, align 8
  call void @list_append(ptr noundef %105, ptr noundef %106)
  %107 = load ptr, ptr %9, align 8
  %108 = getelementptr inbounds nuw %struct.slurmdb_print_tree_t, ptr %107, i32 0, i32 1
  %109 = load ptr, ptr %108, align 8
  store ptr %109, ptr %4, align 8
  store i32 1, ptr %11, align 4
  br label %110

110:                                              ; preds = %104, %57, %14
  call void @llvm.lifetime.end.p0(i64 8, ptr %10) #10
  call void @llvm.lifetime.end.p0(i64 8, ptr %9) #10
  call void @llvm.lifetime.end.p0(i64 8, ptr %8) #10
  %111 = load ptr, ptr %4, align 8
  ret ptr %111
}