; Function Attrs: nounwind uwtable
define dso_local ptr @slurmdb_tree_name_get(ptr noundef %0, ptr noundef %1, ptr noundef %2) local_unnamed_addr #0 {
  %.not = icmp eq ptr %2, null
  br i1 %.not, label %49, label %4

4:                                                ; preds = %3
  %5 = tail call ptr @list_iterator_create(ptr noundef nonnull %2) #19
  %.not41 = icmp eq ptr %1, null
  br i1 %.not41, label %.outer.us, label %.outer

6:                                                ; preds = %.outer.us
  %7 = getelementptr inbounds nuw i8, ptr %12, i64 24
  %8 = load i16, ptr %7, align 8
  %.not38.us = icmp eq i16 %8, 0
  br i1 %.not38.us, label %9, label %.outer.us.backedge

.outer.us.backedge:                               ; preds = %6, %9
  br label %.outer.us, !llvm.loop !29

9:                                                ; preds = %6
  %10 = load ptr, ptr %12, align 8
  %11 = tail call i32 @xstrcmp(ptr noundef %0, ptr noundef %10) #19
  %.not39.us = icmp eq i32 %11, 0
  br i1 %.not39.us, label %.split50.us, label %.outer.us.backedge

.outer.us:                                        ; preds = %4, %.outer.us.backedge
  %12 = tail call ptr @list_next(ptr noundef %5) #19
  %.not44.us = icmp eq ptr %12, null
  br i1 %.not44.us, label %.thread, label %6

.outer:                                           ; preds = %4, %21
  %.0.ph = phi ptr [ %spec.select, %21 ], [ null, %4 ]
  br label %13

13:                                               ; preds = %.outer, %15
  %14 = tail call ptr @list_next(ptr noundef %5) #19
  %.not44 = icmp eq ptr %14, null
  br i1 %.not44, label %.thread, label %15

.thread:                                          ; preds = %13, %.outer.us
  %.us-phi52 = phi ptr [ null, %.outer.us ], [ %.0.ph, %13 ]
  tail call void @list_iterator_destroy(ptr noundef %5) #19
  br label %27

15:                                               ; preds = %13
  %16 = getelementptr inbounds nuw i8, ptr %14, i64 24
  %17 = load i16, ptr %16, align 8
  %.not38 = icmp eq i16 %17, 0
  br i1 %.not38, label %18, label %13, !llvm.loop !29

18:                                               ; preds = %15
  %19 = load ptr, ptr %14, align 8
  %20 = tail call i32 @xstrcmp(ptr noundef %0, ptr noundef %19) #19
  %.not39 = icmp eq i32 %20, 0
  br i1 %.not39, label %.split50.us, label %21

21:                                               ; preds = %18
  %22 = load ptr, ptr %14, align 8
  %23 = tail call i32 @xstrcmp(ptr noundef nonnull %1, ptr noundef %22) #19
  %.not42 = icmp eq i32 %23, 0
  %spec.select = select i1 %.not42, ptr %14, ptr %.0.ph
  br label %.outer, !llvm.loop !29

.split50.us:                                      ; preds = %18, %9
  %.us-phi = phi ptr [ null, %9 ], [ %.0.ph, %18 ]
  %.us-phi51 = phi ptr [ %12, %9 ], [ %14, %18 ]
  tail call void @list_iterator_destroy(ptr noundef %5) #19
  br i1 %.not41, label %27, label %24

24:                                               ; preds = %.split50.us
  %25 = getelementptr inbounds nuw i8, ptr %.us-phi51, i64 8
  %26 = load ptr, ptr %25, align 8
  br label %49

27:                                               ; preds = %.thread, %.split50.us
  %.0.ph48 = phi ptr [ %.us-phi52, %.thread ], [ %.us-phi, %.split50.us ]
  %28 = tail call ptr @slurm_xcalloc(i64 noundef 1, i64 noundef 32, i1 noundef zeroext true, i1 noundef zeroext false, ptr noundef nonnull @.str.2, i32 noundef 2493, ptr noundef nonnull @__func__.slurmdb_tree_name_get) #19
  %29 = tail call ptr @xstrdup(ptr noundef %0) #19
  store ptr %29, ptr %28, align 8
  %.not40 = icmp eq ptr %.0.ph48, null
  br i1 %.not40, label %34, label %30

30:                                               ; preds = %27
  %31 = getelementptr inbounds nuw i8, ptr %.0.ph48, i64 16
  %32 = load ptr, ptr %31, align 8
  %33 = tail call ptr (ptr, ...) @xstrdup_printf(ptr noundef nonnull @.str.58, ptr noundef %32) #19
  br label %36

34:                                               ; preds = %27
  %35 = tail call ptr @xstrdup(ptr noundef nonnull @.str.11) #19
  br label %36

36:                                               ; preds = %34, %30
  %37 = phi ptr [ %35, %34 ], [ %33, %30 ]
  %38 = getelementptr inbounds nuw i8, ptr %28, i64 16
  store ptr %37, ptr %38, align 8
  %39 = load i8, ptr %0, align 1
  %40 = icmp eq i8 %39, 124
  br i1 %40, label %41, label %44

41:                                               ; preds = %36
  %42 = tail call ptr (ptr, ...) @xstrdup_printf(ptr noundef nonnull @.str.15, ptr noundef %37, ptr noundef %1) #19
  %43 = getelementptr inbounds nuw i8, ptr %28, i64 24
  store i16 1, ptr %43, align 8
  br label %46

44:                                               ; preds = %36
  %45 = tail call ptr (ptr, ...) @xstrdup_printf(ptr noundef nonnull @.str.15, ptr noundef %37, ptr noundef nonnull %0) #19
  br label %46

46:                                               ; preds = %44, %41
  %.sink58 = phi ptr [ %42, %41 ], [ %45, %44 ]
  %47 = getelementptr inbounds nuw i8, ptr %28, i64 8
  store ptr %.sink58, ptr %47, align 8
  tail call void @list_append(ptr noundef nonnull %2, ptr noundef nonnull %28) #19
  %48 = load ptr, ptr %47, align 8
  br label %49

49:                                               ; preds = %3, %46, %24
  %.033 = phi ptr [ %26, %24 ], [ %48, %46 ], [ null, %3 ]
  ret ptr %.033
}